target datalayout = "e-m:e-p270:32:32-p271:32:32-p272:64:64-i64:64-i128:128-f80:128-n8:16:32:64-S128"
target triple = "x86_64-pc-linux-gnu"

%struct.H5FL_blk_head_t = type { i8, i32, i32, i64, ptr, ptr }
%struct.H5FL_seq_head_t = type { %struct.H5FL_blk_head_t, i64 }
%struct.H5A_attr_table_t = type { i64, i64, ptr }

@.str.3 = private unnamed_addr constant [100 x i8] c"generated/home/dtcxzyw/WorkSpace/Projects/compilers/llvm-opt-benchmark/bench/hdf5/hdf5/src/H5Aint.c\00", align 1
@H5E_ATTR_g = external global i64, align 8
@H5E_CANTFREE_g = external global i64, align 8
@H5_H5A_t_ptr_seq_free_list = internal global %struct.H5FL_seq_head_t { %struct.H5FL_blk_head_t { i8 0, i32 0, i32 0, i64 0, ptr @.str.99, ptr null }, i64 8 }, align 8
@__func__.H5A__attr_release_table = private unnamed_addr constant [24 x i8] c"H5A__attr_release_table\00", align 1
@.str.67 = private unnamed_addr constant [28 x i8] c"unable to release attribute\00", align 1

; Function Attrs: nounwind uwtable
define i32 @H5A__attr_release_table(ptr noundef %0) #0 {
  %2 = alloca ptr, align 8
  %3 = alloca i32, align 4
  %4 = alloca i8, align 1
  %5 = alloca i64, align 8
  store ptr %0, ptr %2, align 8
  store i32 0, ptr %3, align 4
  store i8 0, ptr %4, align 1
  %6 = load ptr, ptr %2, align 8
  %7 = getelementptr inbounds %struct.H5A_attr_table_t, ptr %6, i32 0, i32 0
  %8 = load i64, ptr %7, align 8
  %9 = icmp ugt i64 %8, 0
  br i1 %9, label %10, label %60

10:                                               ; preds = %1
  store i64 0, ptr %5, align 8
  br label %11

11:                                               ; preds = %50, %10
  %12 = load i64, ptr %5, align 8
  %13 = load ptr, ptr %2, align 8
  %14 = getelementptr inbounds %struct.H5A_attr_table_t, ptr %13, i32 0, i32 0
  %15 = load i64, ptr %14, align 8
  %16 = icmp ult i64 %12, %15
  br i1 %16, label %17, label %53

17:                                               ; preds = %11
  %18 = load ptr, ptr %2, align 8
  %19 = getelementptr inbounds %struct.H5A_attr_table_t, ptr %18, i32 0, i32 2
  %20 = load ptr, ptr %19, align 8
  %21 = load i64, ptr %5, align 8
  %22 = getelementptr inbounds ptr, ptr %20, i64 %21
  %23 = load ptr, ptr %22, align 8
  %24 = icmp ne ptr %23, null
  br i1 %24, label %25, label %49

25:                                               ; preds = %17
  %26 = load ptr, ptr %2, align 8
  %27 = getelementptr inbounds %struct.H5A_attr_table_t, ptr %26, i32 0, i32 2
  %28 = load ptr, ptr %27, align 8
  %29 = load i64, ptr %5, align 8
  %30 = getelementptr inbounds ptr, ptr %28, i64 %29
  %31 = load ptr, ptr %30, align 8
  %32 = call i32 @H5A__close(ptr noundef %31)
  %33 = icmp slt i32 %32, 0
  br i1 %33, label %34, label %49

34:                                               ; preds = %25
  br label %35

35:                                               ; preds = %34
  br label %36

36:                                               ; preds = %35
  br label %37

37:                                               ; preds = %36
  %38 = load i64, ptr @H5E_ATTR_g, align 8
  %39 = load i64, ptr @H5E_CANTFREE_g, align 8
  %40 = call i32 (ptr, ptr, i32, i64, i64, ptr, ...) @H5E_printf_stack(ptr noundef @.str.3, ptr noundef @__func__.H5A__attr_release_table, i32 noundef 1909, i64 noundef %38, i64 noundef %39, ptr noundef @.str.67)
  br label %41

41:                                               ; preds = %37
  store i8 1, ptr %4, align 1
  %42 = load i8, ptr %4, align 1
  %43 = trunc i8 %42 to i1
  %44 = zext i1 %43 to i8
  store i8 %44, ptr %4, align 1
  br label %45

45:                                               ; preds = %41
  br label %46

46:                                               ; preds = %45
  store i32 -1, ptr %3, align 4
  br label %62

47:                                               ; No predecessors!
  br label %48

48:                                               ; preds = %47
  br label %49

49:                                               ; preds = %48, %25, %17
  br label %50

50:                                               ; preds = %49
  %51 = load i64, ptr %5, align 8
  %52 = add i64 %51, 1
  store i64 %52, ptr %5, align 8
  br label %11

53:                                               ; preds = %11
  %54 = load ptr, ptr %2, align 8
  %55 = getelementptr inbounds %struct.H5A_attr_table_t, ptr %54, i32 0, i32 2
  %56 = load ptr, ptr %55, align 8
  %57 = call ptr @H5FL_seq_free(ptr noundef @H5_H5A_t_ptr_seq_free_list, ptr noundef %56)
  %58 = load ptr, ptr %2, align 8
  %59 = getelementptr inbounds %struct.H5A_attr_table_t, ptr %58, i32 0, i32 2
  store ptr %57, ptr %59, align 8
  br label %61

60:                                               ; preds = %1
  br label %61

61:                                               ; preds = %60, %53
  br label %62

62:                                               ; preds = %61, %46
  %63 = load i32, ptr %3, align 4
  ret i32 %63
}