; Function Attrs: nounwind uwtable
define range(i32 -1, 1) i32 @H5A__attr_release_table(ptr nocapture noundef %0) local_unnamed_addr #0 {
  %2 = load i64, ptr %0, align 8
  %.not = icmp eq i64 %2, 0
  br i1 %.not, label %23, label %.lr.ph

.lr.ph:                                           ; preds = %1
  %3 = getelementptr inbounds i8, ptr %0, i64 16
  br label %4

4:                                                ; preds = %.lr.ph, %16
  %5 = phi i64 [ %2, %.lr.ph ], [ %17, %16 ]
  %.014 = phi i64 [ 0, %.lr.ph ], [ %18, %16 ]
  %6 = load ptr, ptr %3, align 8
  %7 = getelementptr inbounds ptr, ptr %6, i64 %.014
  %8 = load ptr, ptr %7, align 8
  %.not13 = icmp eq ptr %8, null
  br i1 %.not13, label %16, label %9

9:                                                ; preds = %4
  %10 = tail call i32 @H5A__close(ptr noundef nonnull %8)
  %11 = icmp slt i32 %10, 0
  br i1 %11, label %12, label %._crit_edge16

._crit_edge16:                                    ; preds = %9
  %.pre = load i64, ptr %0, align 8
  br label %16

12:                                               ; preds = %9
  %13 = load i64, ptr @H5E_ATTR_g, align 8
  %14 = load i64, ptr @H5E_CANTFREE_g, align 8
  %15 = tail call i32 (ptr, ptr, i32, i64, i64, ptr, ...) @H5E_printf_stack(ptr noundef nonnull @.str.3, ptr noundef nonnull @__func__.H5A__attr_release_table, i32 noundef 1909, i64 noundef %13, i64 noundef %14, ptr noundef nonnull @.str.67) #13
  br label %23

16:                                               ; preds = %._crit_edge16, %4
  %17 = phi i64 [ %.pre, %._crit_edge16 ], [ %5, %4 ]
  %18 = add nuw i64 %.014, 1
  %19 = icmp ult i64 %18, %17
  br i1 %19, label %4, label %._crit_edge

._crit_edge:                                      ; preds = %16
  %20 = getelementptr inbounds i8, ptr %0, i64 16
  %21 = load ptr, ptr %20, align 8
  %22 = tail call ptr @H5FL_seq_free(ptr noundef nonnull @H5_H5A_t_ptr_seq_free_list, ptr noundef %21) #13
  store ptr %22, ptr %20, align 8
  br label %23

23:                                               ; preds = %._crit_edge, %1, %12
  %.011 = phi i32 [ -1, %12 ], [ 0, %._crit_edge ], [ 0, %1 ]
  ret i32 %.011
}